target datalayout = "e-m:e-p270:32:32-p271:32:32-p272:64:64-i64:64-i128:128-f80:128-n8:16:32:64-S128"
target triple = "x86_64-pc-linux-gnu"

%struct.GCRef = type { i64 }
%struct.jit_State = type { %struct.GCtrace, ptr, ptr, ptr, ptr, ptr, ptr, i32, i32, i32, i8, i8, %struct.IRType1, i8, %struct.FoldState, ptr, i32, i32, i32, i32, i32, i32, i32, [1 x i32], [5 x %union.TValue], [3 x %union.TValue], ptr, i32, i32, i32, i32, ptr, ptr, i32, i32, i8, ptr, i32, i32, i16, [101 x i16], [258 x i32], [15 x i32], [16 x ptr], [64 x %struct.HotPenalty], i32, [16 x %struct.BPropEntry], i32, %struct.ScEvEntry, ptr, i32, i32, i32, ptr, i32, i32, ptr, ptr, ptr, i64, i64, %union.TValue, ptr, i32, i32 }
%struct.GCtrace = type { %struct.GCRef, i8, i8, i16, i32, i32, %struct.GCRef, ptr, i32, i32, ptr, ptr, %struct.GCRef, %struct.MRef, i32, i32, ptr, i32, i16, i16, i16, i16, i16, i16, i16, i8, i8, i8, i8 }
%struct.MRef = type { i64 }
%struct.IRType1 = type { i8 }
%struct.FoldState = type { %union.IRIns, [2 x %union.IRIns], [2 x %union.IRIns] }
%union.IRIns = type { %struct.GCRef }
%struct.HotPenalty = type { %struct.MRef, i16, i16 }
%struct.BPropEntry = type { i16, i16, i32 }
%struct.ScEvEntry = type { %struct.MRef, i16, i16, i16, i16, %struct.IRType1, i8 }
%union.TValue = type { i64 }
%struct.anon.2 = type { i16, i16, i16, i16 }
%struct.RecordFFData = type { ptr, i64, i32 }

; Function Attrs: alwaysinline nounwind uwtable
define internal void @lj_ir_set_(ptr noundef %0, i16 noundef zeroext %1, i16 noundef zeroext %2, i16 noundef zeroext %3) #1 {
  %5 = alloca ptr, align 8
  %6 = alloca i16, align 2
  %7 = alloca i16, align 2
  %8 = alloca i16, align 2
  store ptr %0, ptr %5, align 8, !tbaa !4
  store i16 %1, ptr %6, align 2, !tbaa !14
  store i16 %2, ptr %7, align 2, !tbaa !14
  store i16 %3, ptr %8, align 2, !tbaa !14
  %9 = load i16, ptr %6, align 2, !tbaa !14
  %10 = load ptr, ptr %5, align 8, !tbaa !4
  %11 = getelementptr inbounds nuw %struct.jit_State, ptr %10, i32 0, i32 14
  %12 = getelementptr inbounds nuw %struct.FoldState, ptr %11, i32 0, i32 0
  %13 = getelementptr inbounds nuw %struct.anon.2, ptr %12, i32 0, i32 2
  store i16 %9, ptr %13, align 4, !tbaa !13
  %14 = load i16, ptr %7, align 2, !tbaa !14
  %15 = load ptr, ptr %5, align 8, !tbaa !4
  %16 = getelementptr inbounds nuw %struct.jit_State, ptr %15, i32 0, i32 14
  %17 = getelementptr inbounds nuw %struct.FoldState, ptr %16, i32 0, i32 0
  %18 = getelementptr inbounds nuw %struct.anon.2, ptr %17, i32 0, i32 0
  store i16 %14, ptr %18, align 8, !tbaa !13
  %19 = load i16, ptr %8, align 2, !tbaa !14
  %20 = load ptr, ptr %5, align 8, !tbaa !4
  %21 = getelementptr inbounds nuw %struct.jit_State, ptr %20, i32 0, i32 14
  %22 = getelementptr inbounds nuw %struct.FoldState, ptr %21, i32 0, i32 0
  %23 = getelementptr inbounds nuw %struct.anon.2, ptr %22, i32 0, i32 1
  store i16 %19, ptr %23, align 2, !tbaa !13
  ret void
}

; Function Attrs: nounwind uwtable
define internal void @recff_math_minmax(ptr noundef %0, ptr noundef %1) #0 {
  %3 = alloca ptr, align 8
  %4 = alloca ptr, align 8
  %5 = alloca i32, align 4
  %6 = alloca i32, align 4
  %7 = alloca i32, align 4
  %8 = alloca i32, align 4
  %9 = alloca i32, align 4
  store ptr %0, ptr %3, align 8, !tbaa !4
  store ptr %1, ptr %4, align 8, !tbaa !46
  call void @llvm.lifetime.start.p0(i64 4, ptr %5) #9
  %10 = load ptr, ptr %3, align 8, !tbaa !4
  %11 = load ptr, ptr %3, align 8, !tbaa !4
  %12 = getelementptr inbounds nuw %struct.jit_State, ptr %11, i32 0, i32 6
  %13 = load ptr, ptr %12, align 8, !tbaa !41
  %14 = getelementptr inbounds i32, ptr %13, i64 0
  %15 = load i32, ptr %14, align 4, !tbaa !9
  %16 = call i32 @lj_ir_tonumber(ptr noundef %10, i32 noundef %15)
  store i32 %16, ptr %5, align 4, !tbaa !9
  call void @llvm.lifetime.start.p0(i64 4, ptr %6) #9
  %17 = load ptr, ptr %4, align 8, !tbaa !46
  %18 = getelementptr inbounds nuw %struct.RecordFFData, ptr %17, i32 0, i32 2
  %19 = load i32, ptr %18, align 8, !tbaa !34
  store i32 %19, ptr %6, align 4, !tbaa !9
  call void @llvm.lifetime.start.p0(i64 4, ptr %7) #9
  store i32 1, ptr %7, align 4, !tbaa !9
  br label %20

20:                                               ; preds = %88, %2
  %21 = load ptr, ptr %3, align 8, !tbaa !4
  %22 = getelementptr inbounds nuw %struct.jit_State, ptr %21, i32 0, i32 6
  %23 = load ptr, ptr %22, align 8, !tbaa !41
  %24 = load i32, ptr %7, align 4, !tbaa !9
  %25 = zext i32 %24 to i64
  %26 = getelementptr inbounds nuw i32, ptr %23, i64 %25
  %27 = load i32, ptr %26, align 4, !tbaa !9
  %28 = icmp ne i32 %27, 0
  br i1 %28, label %29, label %91

29:                                               ; preds = %20
  call void @llvm.lifetime.start.p0(i64 4, ptr %8) #9
  %30 = load ptr, ptr %3, align 8, !tbaa !4
  %31 = load ptr, ptr %3, align 8, !tbaa !4
  %32 = getelementptr inbounds nuw %struct.jit_State, ptr %31, i32 0, i32 6
  %33 = load ptr, ptr %32, align 8, !tbaa !41
  %34 = load i32, ptr %7, align 4, !tbaa !9
  %35 = zext i32 %34 to i64
  %36 = getelementptr inbounds nuw i32, ptr %33, i64 %35
  %37 = load i32, ptr %36, align 4, !tbaa !9
  %38 = call i32 @lj_ir_tonumber(ptr noundef %30, i32 noundef %37)
  store i32 %38, ptr %8, align 4, !tbaa !9
  call void @llvm.lifetime.start.p0(i64 4, ptr %9) #9
  store i32 19, ptr %9, align 4, !tbaa !9
  %39 = load i32, ptr %5, align 4, !tbaa !9
  %40 = lshr i32 %39, 24
  %41 = and i32 %40, 31
  %42 = sub i32 %41, 15
  %43 = icmp ule i32 %42, 4
  br i1 %43, label %44, label %50

44:                                               ; preds = %29
  %45 = load i32, ptr %8, align 4, !tbaa !9
  %46 = lshr i32 %45, 24
  %47 = and i32 %46, 31
  %48 = sub i32 %47, 15
  %49 = icmp ule i32 %48, 4
  br i1 %49, label %75, label %50

50:                                               ; preds = %44, %29
  %51 = load i32, ptr %5, align 4, !tbaa !9
  %52 = lshr i32 %51, 24
  %53 = and i32 %52, 31
  %54 = sub i32 %53, 15
  %55 = icmp ule i32 %54, 4
  br i1 %55, label %56, label %62

56:                                               ; preds = %50
  %57 = load ptr, ptr %3, align 8, !tbaa !4
  %58 = load i32, ptr %5, align 4, !tbaa !9
  %59 = trunc i32 %58 to i16
  call void @lj_ir_set_(ptr noundef %57, i16 noundef zeroext 23310, i16 noundef zeroext %59, i16 noundef zeroext 467)
  %60 = load ptr, ptr %3, align 8, !tbaa !4
  %61 = call i32 @lj_opt_fold(ptr noundef %60)
  store i32 %61, ptr %5, align 4, !tbaa !9
  br label %62

62:                                               ; preds = %56, %50
  %63 = load i32, ptr %8, align 4, !tbaa !9
  %64 = lshr i32 %63, 24
  %65 = and i32 %64, 31
  %66 = sub i32 %65, 15
  %67 = icmp ule i32 %66, 4
  br i1 %67, label %68, label %74

68:                                               ; preds = %62
  %69 = load ptr, ptr %3, align 8, !tbaa !4
  %70 = load i32, ptr %8, align 4, !tbaa !9
  %71 = trunc i32 %70 to i16
  call void @lj_ir_set_(ptr noundef %69, i16 noundef zeroext 23310, i16 noundef zeroext %71, i16 noundef zeroext 467)
  %72 = load ptr, ptr %3, align 8, !tbaa !4
  %73 = call i32 @lj_opt_fold(ptr noundef %72)
  store i32 %73, ptr %8, align 4, !tbaa !9
  br label %74

74:                                               ; preds = %68, %62
  store i32 14, ptr %9, align 4, !tbaa !9
  br label %75

75:                                               ; preds = %74, %44
  %76 = load ptr, ptr %3, align 8, !tbaa !4
  %77 = load i32, ptr %6, align 4, !tbaa !9
  %78 = shl i32 %77, 8
  %79 = load i32, ptr %9, align 4, !tbaa !9
  %80 = or i32 %78, %79
  %81 = trunc i32 %80 to i16
  %82 = load i32, ptr %5, align 4, !tbaa !9
  %83 = trunc i32 %82 to i16
  %84 = load i32, ptr %8, align 4, !tbaa !9
  %85 = trunc i32 %84 to i16
  call void @lj_ir_set_(ptr noundef %76, i16 noundef zeroext %81, i16 noundef zeroext %83, i16 noundef zeroext %85)
  %86 = load ptr, ptr %3, align 8, !tbaa !4
  %87 = call i32 @lj_opt_fold(ptr noundef %86)
  store i32 %87, ptr %5, align 4, !tbaa !9
  call void @llvm.lifetime.end.p0(i64 4, ptr %9) #9
  call void @llvm.lifetime.end.p0(i64 4, ptr %8) #9
  br label %88

88:                                               ; preds = %75
  %89 = load i32, ptr %7, align 4, !tbaa !9
  %90 = add i32 %89, 1
  store i32 %90, ptr %7, align 4, !tbaa !9
  br label %20, !llvm.loop !63

91:                                               ; preds = %20
  %92 = load i32, ptr %5, align 4, !tbaa !9
  %93 = load ptr, ptr %3, align 8, !tbaa !4
  %94 = getelementptr inbounds nuw %struct.jit_State, ptr %93, i32 0, i32 6
  %95 = load ptr, ptr %94, align 8, !tbaa !41
  %96 = getelementptr inbounds i32, ptr %95, i64 0
  store i32 %92, ptr %96, align 4, !tbaa !9
  call void @llvm.lifetime.end.p0(i64 4, ptr %7) #9
  call void @llvm.lifetime.end.p0(i64 4, ptr %6) #9
  call void @llvm.lifetime.end.p0(i64 4, ptr %5) #9
  ret void
}