; Function Attrs: nounwind uwtable
define internal void @recff_math_minmax(ptr noundef %0, ptr noundef readonly captures(none) %1) #0 {
  %3 = getelementptr inbounds nuw i8, ptr %0, i64 160
  %4 = load ptr, ptr %3, align 8, !tbaa !37
  %5 = load i32, ptr %4, align 4, !tbaa !39
  %6 = tail call i32 @lj_ir_tonumber(ptr noundef %0, i32 noundef %5) #9
  %7 = load ptr, ptr %3, align 8, !tbaa !37
  %8 = getelementptr inbounds nuw i8, ptr %7, i64 4
  %9 = load i32, ptr %8, align 4, !tbaa !39
  %.not31 = icmp eq i32 %9, 0
  br i1 %.not31, label %._crit_edge, label %.lr.ph

.lr.ph:                                           ; preds = %2
  %10 = getelementptr inbounds nuw i8, ptr %1, i64 16
  %11 = load i32, ptr %10, align 8, !tbaa !29
  %12 = getelementptr inbounds nuw i8, ptr %0, i64 184
  %13 = getelementptr inbounds nuw i8, ptr %0, i64 188
  %14 = getelementptr inbounds nuw i8, ptr %0, i64 186
  %15 = shl i32 %11, 8
  br label %16

16:                                               ; preds = %.lr.ph, %33
  %17 = phi i32 [ %9, %.lr.ph ], [ %43, %33 ]
  %.02733 = phi i32 [ 1, %.lr.ph ], [ %39, %33 ]
  %.02832 = phi i32 [ %6, %.lr.ph ], [ %38, %33 ]
  %18 = tail call i32 @lj_ir_tonumber(ptr noundef nonnull %0, i32 noundef %17) #9
  %19 = lshr i32 %.02832, 24
  %20 = and i32 %19, 31
  %21 = add nsw i32 %20, -15
  %22 = icmp ult i32 %21, 5
  %23 = lshr i32 %18, 24
  %24 = and i32 %23, 31
  %25 = add nsw i32 %24, -15
  %26 = icmp ult i32 %25, 5
  br i1 %22, label %27, label %.critedge

27:                                               ; preds = %16
  br i1 %26, label %33, label %.critedge.thread

.critedge.thread:                                 ; preds = %27
  %28 = trunc i32 %.02832 to i16
  store i16 23310, ptr %13, align 4, !tbaa !4
  store i16 %28, ptr %12, align 8, !tbaa !4
  store i16 467, ptr %14, align 2, !tbaa !4
  %29 = tail call i32 @lj_opt_fold(ptr noundef nonnull %0) #9
  br label %33

.critedge:                                        ; preds = %16
  br i1 %26, label %30, label %33

30:                                               ; preds = %.critedge
  %31 = trunc i32 %18 to i16
  store i16 23310, ptr %13, align 4, !tbaa !4
  store i16 %31, ptr %12, align 8, !tbaa !4
  store i16 467, ptr %14, align 2, !tbaa !4
  %32 = tail call i32 @lj_opt_fold(ptr noundef nonnull %0) #9
  br label %33

33:                                               ; preds = %.critedge.thread, %.critedge, %30, %27
  %.129 = phi i32 [ %.02832, %27 ], [ %.02832, %30 ], [ %.02832, %.critedge ], [ %29, %.critedge.thread ]
  %.026 = phi i32 [ %18, %27 ], [ %32, %30 ], [ %18, %.critedge ], [ %18, %.critedge.thread ]
  %.0 = phi i32 [ 19, %27 ], [ 14, %30 ], [ 14, %.critedge ], [ 14, %.critedge.thread ]
  %34 = or disjoint i32 %.0, %15
  %35 = trunc i32 %34 to i16
  %36 = trunc i32 %.129 to i16
  %37 = trunc i32 %.026 to i16
  store i16 %35, ptr %13, align 4, !tbaa !4
  store i16 %36, ptr %12, align 8, !tbaa !4
  store i16 %37, ptr %14, align 2, !tbaa !4
  %38 = tail call i32 @lj_opt_fold(ptr noundef nonnull %0) #9
  %39 = add i32 %.02733, 1
  %40 = load ptr, ptr %3, align 8, !tbaa !37
  %41 = zext i32 %39 to i64
  %42 = getelementptr inbounds nuw i32, ptr %40, i64 %41
  %43 = load i32, ptr %42, align 4, !tbaa !39
  %.not = icmp eq i32 %43, 0
  br i1 %.not, label %._crit_edge, label %16, !llvm.loop !58

._crit_edge:                                      ; preds = %33, %2
  %.028.lcssa = phi i32 [ %6, %2 ], [ %38, %33 ]
  %.lcssa = phi ptr [ %7, %2 ], [ %40, %33 ]
  store i32 %.028.lcssa, ptr %.lcssa, align 4, !tbaa !39
  ret void
}